target datalayout = "e-m:e-p270:32:32-p271:32:32-p272:64:64-i64:64-i128:128-f80:128-n8:16:32:64-S128"
target triple = "x86_64-pc-linux-gnu"

%struct.notes_cache = type { %struct.notes_tree, ptr }
%struct.notes_tree = type { ptr, ptr, ptr, ptr, ptr, ptr, i32, i32 }
%struct.object_id = type { [32 x i8], i32 }

; Function Attrs: inlinehint nounwind uwtable
define internal i32 @write_object_file(ptr noundef %0, i64 noundef %1, i32 noundef %2, ptr noundef %3) #6 {
  %5 = alloca ptr, align 8
  %6 = alloca i64, align 8
  %7 = alloca i32, align 4
  %8 = alloca ptr, align 8
  store ptr %0, ptr %5, align 8, !tbaa !34
  store i64 %1, ptr %6, align 8, !tbaa !33
  store i32 %2, ptr %7, align 4, !tbaa !13
  store ptr %3, ptr %8, align 8, !tbaa !29
  %9 = load ptr, ptr %5, align 8, !tbaa !34
  %10 = load i64, ptr %6, align 8, !tbaa !33
  %11 = load i32, ptr %7, align 4, !tbaa !13
  %12 = load ptr, ptr %8, align 8, !tbaa !29
  %13 = call i32 @write_object_file_flags(ptr noundef %9, i64 noundef %10, i32 noundef %11, ptr noundef %12, ptr noundef null, i32 noundef 0)
  ret i32 %13
}

; Function Attrs: nounwind uwtable
define dso_local i32 @notes_cache_put(ptr noundef %0, ptr noundef %1, ptr noundef %2, i64 noundef %3) #0 {
  %5 = alloca i32, align 4
  %6 = alloca ptr, align 8
  %7 = alloca ptr, align 8
  %8 = alloca ptr, align 8
  %9 = alloca i64, align 8
  %10 = alloca %struct.object_id, align 4
  %11 = alloca i32, align 4
  store ptr %0, ptr %6, align 8, !tbaa !9
  store ptr %1, ptr %7, align 8, !tbaa !29
  store ptr %2, ptr %8, align 8, !tbaa !11
  store i64 %3, ptr %9, align 8, !tbaa !33
  call void @llvm.lifetime.start.p0(i64 36, ptr %10) #7
  %12 = load ptr, ptr %8, align 8, !tbaa !11
  %13 = load i64, ptr %9, align 8, !tbaa !33
  %14 = call i32 @write_object_file(ptr noundef %12, i64 noundef %13, i32 noundef 3, ptr noundef %10)
  %15 = icmp slt i32 %14, 0
  br i1 %15, label %16, label %17

16:                                               ; preds = %4
  store i32 -1, ptr %5, align 4
  store i32 1, ptr %11, align 4
  br label %22

17:                                               ; preds = %4
  %18 = load ptr, ptr %6, align 8, !tbaa !9
  %19 = getelementptr inbounds nuw %struct.notes_cache, ptr %18, i32 0, i32 0
  %20 = load ptr, ptr %7, align 8, !tbaa !29
  %21 = call i32 @add_note(ptr noundef %19, ptr noundef %20, ptr noundef %10, ptr noundef null)
  store i32 %21, ptr %5, align 4
  store i32 1, ptr %11, align 4
  br label %22

22:                                               ; preds = %17, %16
  call void @llvm.lifetime.end.p0(i64 36, ptr %10) #7
  %23 = load i32, ptr %5, align 4
  ret i32 %23
}