; Function Attrs: nounwind uwtable
define dso_local i32 @notes_cache_put(ptr noundef %0, ptr noundef %1, ptr noundef %2, i64 noundef %3) local_unnamed_addr #0 {
  %5 = alloca %struct.object_id, align 4
  call void @llvm.lifetime.start.p0(i64 36, ptr nonnull %5) #6
  %6 = call i32 @write_object_file_flags(ptr noundef %2, i64 noundef %3, i32 noundef 3, ptr noundef nonnull %5, ptr noundef null, i32 noundef 0) #6
  %7 = icmp slt i32 %6, 0
  br i1 %7, label %10, label %8

8:                                                ; preds = %4
  %9 = call i32 @add_note(ptr noundef %0, ptr noundef %1, ptr noundef nonnull %5, ptr noundef null) #6
  br label %10

10:                                               ; preds = %4, %8
  %.0 = phi i32 [ %9, %8 ], [ -1, %4 ]
  call void @llvm.lifetime.end.p0(i64 36, ptr nonnull %5) #6
  ret i32 %.0
}